; Function Attrs: mustprogress uwtable
define void @_ZN11SearchFrame14setCaptureFileEP13_capture_file(ptr noundef nonnull align 8 dereferenceable(104) %0, ptr noundef %1) local_unnamed_addr #0 align 2 {
  %3 = getelementptr inbounds i8, ptr %0, i64 64
  store ptr %1, ptr %3, align 8
  %.not = icmp eq ptr %1, null
  br i1 %.not, label %4, label %11

4:                                                ; preds = %2
  %5 = getelementptr inbounds i8, ptr %0, i64 32
  %6 = load ptr, ptr %5, align 8
  %7 = getelementptr inbounds i8, ptr %6, i64 8
  %8 = load i32, ptr %7, align 8
  %9 = and i32 %8, 32768
  %.not3 = icmp eq i32 %9, 0
  br i1 %.not3, label %11, label %10

10:                                               ; preds = %4
  tail call void @_ZN14AccordionFrame12animatedHideEv(ptr noundef nonnull align 8 dereferenceable(56) %0)
  br label %11

11:                                               ; preds = %10, %4, %2
  tail call void @_ZN11SearchFrame13updateWidgetsEv(ptr noundef nonnull align 8 dereferenceable(104) %0)
  ret void
}